target datalayout = "e-m:e-p270:32:32-p271:32:32-p272:64:64-i64:64-i128:128-f80:128-n8:16:32:64-S128"
target triple = "x86_64-unknown-linux-gnu"

%"class.std::error_code" = type { i32, ptr }

; Function Attrs: mustprogress nounwind uwtable
define linkonce_odr noundef zeroext i1 @_ZNKSt10error_codecvbEv(ptr noundef nonnull align 8 dereferenceable(16) %this) #0 comdat align 2 {
entry:
  %this.addr = alloca ptr, align 8
  store ptr %this, ptr %this.addr, align 8
  %this1 = load ptr, ptr %this.addr, align 8
  %_M_value = getelementptr inbounds %"class.std::error_code", ptr %this1, i32 0, i32 0
  %0 = load i32, ptr %_M_value, align 8
  %cmp = icmp ne i32 %0, 0
  ret i1 %cmp
}

; Function Attrs: mustprogress nounwind uwtable
define hidden { i32, ptr } @_ZN4llvh3sys2fs16createUniqueFileERKNS_5TwineERiRNS_15SmallVectorImplIcEEj(ptr noundef nonnull align 8 dereferenceable(18) %Model, ptr noundef nonnull align 4 dereferenceable(4) %ResultFd, ptr noundef nonnull align 8 dereferenceable(16) %ResultPath, i32 noundef %Mode) #0 {
entry:
  %retval = alloca %"class.std::error_code", align 8
  %Model.addr = alloca ptr, align 8
  %ResultFd.addr = alloca ptr, align 8
  %ResultPath.addr = alloca ptr, align 8
  %Mode.addr = alloca i32, align 4
  store ptr %Model, ptr %Model.addr, align 8
  store ptr %ResultFd, ptr %ResultFd.addr, align 8
  store ptr %ResultPath, ptr %ResultPath.addr, align 8
  store i32 %Mode, ptr %Mode.addr, align 4
  %0 = load ptr, ptr %Model.addr, align 8
  %1 = load ptr, ptr %ResultFd.addr, align 8
  %2 = load ptr, ptr %ResultPath.addr, align 8
  %3 = load i32, ptr %Mode.addr, align 4
  %call = call { i32, ptr } @_ZL18createUniqueEntityRKN4llvh5TwineERiRNS_15SmallVectorImplIcEEbj8FSEntityNS_3sys2fs9OpenFlagsE(ptr noundef nonnull align 8 dereferenceable(18) %0, ptr noundef nonnull align 4 dereferenceable(4) %1, ptr noundef nonnull align 8 dereferenceable(16) %2, i1 noundef zeroext false, i32 noundef %3, i32 noundef 1, i32 noundef 0)
  %4 = getelementptr inbounds { i32, ptr }, ptr %retval, i32 0, i32 0
  %5 = extractvalue { i32, ptr } %call, 0
  store i32 %5, ptr %4, align 8
  %6 = getelementptr inbounds { i32, ptr }, ptr %retval, i32 0, i32 1
  %7 = extractvalue { i32, ptr } %call, 1
  store ptr %7, ptr %6, align 8
  %8 = load { i32, ptr }, ptr %retval, align 8
  ret { i32, ptr } %8
}

; Function Attrs: mustprogress nounwind uwtable
define hidden { i32, ptr } @_ZN4llvh3sys2fs16createUniqueFileERKNS_5TwineERNS_15SmallVectorImplIcEEj(ptr noundef nonnull align 8 dereferenceable(18) %Model, ptr noundef nonnull align 8 dereferenceable(16) %ResultPath, i32 noundef %Mode) #0 {
entry:
  %retval = alloca %"class.std::error_code", align 8
  %Model.addr = alloca ptr, align 8
  %ResultPath.addr = alloca ptr, align 8
  %Mode.addr = alloca i32, align 4
  %FD = alloca i32, align 4
  store ptr %Model, ptr %Model.addr, align 8
  store ptr %ResultPath, ptr %ResultPath.addr, align 8
  store i32 %Mode, ptr %Mode.addr, align 4
  %0 = load ptr, ptr %Model.addr, align 8
  %1 = load ptr, ptr %ResultPath.addr, align 8
  %2 = load i32, ptr %Mode.addr, align 4
  %call = call { i32, ptr } @_ZN4llvh3sys2fs16createUniqueFileERKNS_5TwineERiRNS_15SmallVectorImplIcEEj(ptr noundef nonnull align 8 dereferenceable(18) %0, ptr noundef nonnull align 4 dereferenceable(4) %FD, ptr noundef nonnull align 8 dereferenceable(16) %1, i32 noundef %2)
  %3 = getelementptr inbounds { i32, ptr }, ptr %retval, i32 0, i32 0
  %4 = extractvalue { i32, ptr } %call, 0
  store i32 %4, ptr %3, align 8
  %5 = getelementptr inbounds { i32, ptr }, ptr %retval, i32 0, i32 1
  %6 = extractvalue { i32, ptr } %call, 1
  store ptr %6, ptr %5, align 8
  %call1 = call noundef zeroext i1 @_ZNKSt10error_codecvbEv(ptr noundef nonnull align 8 dereferenceable(16) %retval) #9
  br i1 %call1, label %if.then, label %if.end

if.then:                                          ; preds = %entry
  br label %return

if.end:                                           ; preds = %entry
  %7 = load i32, ptr %FD, align 4
  %call2 = call i32 @close(i32 noundef %7)
  br label %return

return:                                           ; preds = %if.end, %if.then
  %8 = load { i32, ptr }, ptr %retval, align 8
  ret { i32, ptr } %8
}