; Function Attrs: mustprogress nounwind uwtable
define hidden { i32, ptr } @_ZN4llvh3sys2fs16createUniqueFileERKNS_5TwineERNS_15SmallVectorImplIcEEj(ptr noundef nonnull align 8 dereferenceable(18) %Model, ptr noundef nonnull align 8 dereferenceable(16) %ResultPath, i32 noundef %Mode) local_unnamed_addr #0 {
entry:
  %FD = alloca i32, align 4
  %call.i = call fastcc { i32, ptr } @_ZL18createUniqueEntityRKN4llvh5TwineERiRNS_15SmallVectorImplIcEEbj8FSEntityNS_3sys2fs9OpenFlagsE(ptr noundef nonnull align 8 dereferenceable(18) %Model, ptr noundef nonnull align 4 dereferenceable(4) %FD, ptr noundef nonnull align 8 dereferenceable(16) %ResultPath, i1 noundef zeroext false, i32 noundef %Mode, i32 noundef 1, i32 noundef 0)
  %0 = extractvalue { i32, ptr } %call.i, 0
  %cmp.i.not = icmp eq i32 %0, 0
  br i1 %cmp.i.not, label %if.end, label %return

if.end:                                           ; preds = %entry
  %1 = load i32, ptr %FD, align 4
  %call2 = tail call i32 @close(i32 noundef %1) #29
  br label %return

return:                                           ; preds = %entry, %if.end
  ret { i32, ptr } %call.i
}